; Function Attrs: null_pointer_is_valid sspstrong uwtable
define internal i32 @dissect_ber_T_encoding(i1 zeroext %0, ptr noundef %1, i32 noundef %2, ptr noundef %3, ptr noundef %4, i32 noundef %5) #0 {
  %.not = icmp eq ptr %3, null
  br i1 %.not, label %7, label %8

7:                                                ; preds = %6
  tail call void (ptr, ...) @proto_report_dissector_bug(ptr noundef nonnull @.str.367, ptr noundef nonnull @.str.11, i32 noundef 4183, ptr noundef nonnull @.str.368) #15
  unreachable

8:                                                ; preds = %6
  %9 = load i32, ptr @ett_ber_T_encoding, align 4
  %10 = getelementptr inbounds nuw i8, ptr %3, i64 84
  %11 = tail call i32 @dissect_ber_choice(ptr noundef nonnull %3, ptr noundef %4, ptr noundef %1, i32 noundef %2, ptr noundef nonnull @T_encoding_choice, i32 noundef %5, i32 noundef %9, ptr noundef nonnull %10)
  ret i32 %11
}